target datalayout = "e-m:e-p270:32:32-p271:32:32-p272:64:64-i64:64-i128:128-f80:128-n8:16:32:64-S128"
target triple = "x86_64-pc-linux-gnu"

%struct.Matrix = type { float, float, float, float, float, float, float, float, float, float, float, float, float, float, float, float }
%struct.Shader = type { i32, ptr }

@glad_glUniformMatrix4fv = global ptr null, align 8
@glad_glUseProgram = global ptr null, align 8

; Function Attrs: nounwind uwtable
define void @rlSetUniformMatrix(i32 noundef %0, ptr noundef byval(%struct.Matrix) align 8 %1) #0 {
  %3 = alloca i32, align 4
  %4 = alloca [16 x float], align 16
  store i32 %0, ptr %3, align 4
  call void @llvm.lifetime.start.p0(i64 64, ptr %4) #16
  %5 = getelementptr inbounds nuw %struct.Matrix, ptr %1, i32 0, i32 0
  %6 = load float, ptr %5, align 8
  store float %6, ptr %4, align 4
  %7 = getelementptr inbounds float, ptr %4, i64 1
  %8 = getelementptr inbounds nuw %struct.Matrix, ptr %1, i32 0, i32 4
  %9 = load float, ptr %8, align 8
  store float %9, ptr %7, align 4
  %10 = getelementptr inbounds float, ptr %4, i64 2
  %11 = getelementptr inbounds nuw %struct.Matrix, ptr %1, i32 0, i32 8
  %12 = load float, ptr %11, align 8
  store float %12, ptr %10, align 4
  %13 = getelementptr inbounds float, ptr %4, i64 3
  %14 = getelementptr inbounds nuw %struct.Matrix, ptr %1, i32 0, i32 12
  %15 = load float, ptr %14, align 8
  store float %15, ptr %13, align 4
  %16 = getelementptr inbounds float, ptr %4, i64 4
  %17 = getelementptr inbounds nuw %struct.Matrix, ptr %1, i32 0, i32 1
  %18 = load float, ptr %17, align 4
  store float %18, ptr %16, align 4
  %19 = getelementptr inbounds float, ptr %4, i64 5
  %20 = getelementptr inbounds nuw %struct.Matrix, ptr %1, i32 0, i32 5
  %21 = load float, ptr %20, align 4
  store float %21, ptr %19, align 4
  %22 = getelementptr inbounds float, ptr %4, i64 6
  %23 = getelementptr inbounds nuw %struct.Matrix, ptr %1, i32 0, i32 9
  %24 = load float, ptr %23, align 4
  store float %24, ptr %22, align 4
  %25 = getelementptr inbounds float, ptr %4, i64 7
  %26 = getelementptr inbounds nuw %struct.Matrix, ptr %1, i32 0, i32 13
  %27 = load float, ptr %26, align 4
  store float %27, ptr %25, align 4
  %28 = getelementptr inbounds float, ptr %4, i64 8
  %29 = getelementptr inbounds nuw %struct.Matrix, ptr %1, i32 0, i32 2
  %30 = load float, ptr %29, align 8
  store float %30, ptr %28, align 4
  %31 = getelementptr inbounds float, ptr %4, i64 9
  %32 = getelementptr inbounds nuw %struct.Matrix, ptr %1, i32 0, i32 6
  %33 = load float, ptr %32, align 8
  store float %33, ptr %31, align 4
  %34 = getelementptr inbounds float, ptr %4, i64 10
  %35 = getelementptr inbounds nuw %struct.Matrix, ptr %1, i32 0, i32 10
  %36 = load float, ptr %35, align 8
  store float %36, ptr %34, align 4
  %37 = getelementptr inbounds float, ptr %4, i64 11
  %38 = getelementptr inbounds nuw %struct.Matrix, ptr %1, i32 0, i32 14
  %39 = load float, ptr %38, align 8
  store float %39, ptr %37, align 4
  %40 = getelementptr inbounds float, ptr %4, i64 12
  %41 = getelementptr inbounds nuw %struct.Matrix, ptr %1, i32 0, i32 3
  %42 = load float, ptr %41, align 4
  store float %42, ptr %40, align 4
  %43 = getelementptr inbounds float, ptr %4, i64 13
  %44 = getelementptr inbounds nuw %struct.Matrix, ptr %1, i32 0, i32 7
  %45 = load float, ptr %44, align 4
  store float %45, ptr %43, align 4
  %46 = getelementptr inbounds float, ptr %4, i64 14
  %47 = getelementptr inbounds nuw %struct.Matrix, ptr %1, i32 0, i32 11
  %48 = load float, ptr %47, align 4
  store float %48, ptr %46, align 4
  %49 = getelementptr inbounds float, ptr %4, i64 15
  %50 = getelementptr inbounds nuw %struct.Matrix, ptr %1, i32 0, i32 15
  %51 = load float, ptr %50, align 4
  store float %51, ptr %49, align 4
  %52 = load ptr, ptr @glad_glUniformMatrix4fv, align 8
  %53 = load i32, ptr %3, align 4
  %54 = getelementptr inbounds [16 x float], ptr %4, i64 0, i64 0
  call void %52(i32 noundef %53, i32 noundef 1, i8 noundef zeroext 0, ptr noundef %54)
  call void @llvm.lifetime.end.p0(i64 64, ptr %4) #16
  ret void
}

; Function Attrs: nounwind uwtable
define void @rlEnableShader(i32 noundef %0) #0 {
  %2 = alloca i32, align 4
  store i32 %0, ptr %2, align 4
  %3 = load ptr, ptr @glad_glUseProgram, align 8
  %4 = load i32, ptr %2, align 4
  call void %3(i32 noundef %4)
  ret void
}

; Function Attrs: nounwind uwtable
define void @SetShaderValueMatrix(i32 %0, ptr %1, i32 noundef %2, ptr noundef byval(%struct.Matrix) align 8 %3) #0 {
  %5 = alloca %struct.Shader, align 8
  %6 = alloca i32, align 4
  %7 = getelementptr inbounds nuw { i32, ptr }, ptr %5, i32 0, i32 0
  store i32 %0, ptr %7, align 8
  %8 = getelementptr inbounds nuw { i32, ptr }, ptr %5, i32 0, i32 1
  store ptr %1, ptr %8, align 8
  store i32 %2, ptr %6, align 4
  %9 = load i32, ptr %6, align 4
  %10 = icmp sgt i32 %9, -1
  br i1 %10, label %11, label %15

11:                                               ; preds = %4
  %12 = getelementptr inbounds nuw %struct.Shader, ptr %5, i32 0, i32 0
  %13 = load i32, ptr %12, align 8
  call void @rlEnableShader(i32 noundef %13)
  %14 = load i32, ptr %6, align 4
  call void @rlSetUniformMatrix(i32 noundef %14, ptr noundef byval(%struct.Matrix) align 8 %3)
  br label %15

15:                                               ; preds = %11, %4
  ret void
}