; Function Attrs: nounwind uwtable
define void @SetShaderValueMatrix(i32 %0, ptr readnone captures(none) %1, i32 noundef %2, ptr noundef readonly byval(%struct.Matrix) align 8 captures(none) %3) local_unnamed_addr #0 {
  %5 = alloca [16 x float], align 16
  %6 = icmp sgt i32 %2, -1
  br i1 %6, label %7, label %25

7:                                                ; preds = %4
  %8 = load ptr, ptr @glad_glUseProgram, align 8
  tail call void %8(i32 noundef %0) #56
  %.sroa.0.0.copyload = load float, ptr %3, align 8
  %.sroa.4.0..sroa_idx = getelementptr inbounds nuw i8, ptr %3, i64 4
  %.sroa.4.0.copyload = load float, ptr %.sroa.4.0..sroa_idx, align 4
  %.sroa.5.0..sroa_idx = getelementptr inbounds nuw i8, ptr %3, i64 8
  %.sroa.5.0.copyload = load float, ptr %.sroa.5.0..sroa_idx, align 8
  %.sroa.6.0..sroa_idx = getelementptr inbounds nuw i8, ptr %3, i64 12
  %.sroa.6.0.copyload = load float, ptr %.sroa.6.0..sroa_idx, align 4
  %.sroa.7.0..sroa_idx = getelementptr inbounds nuw i8, ptr %3, i64 16
  %.sroa.7.0.copyload = load float, ptr %.sroa.7.0..sroa_idx, align 8
  %.sroa.8.0..sroa_idx = getelementptr inbounds nuw i8, ptr %3, i64 20
  %.sroa.8.0.copyload = load float, ptr %.sroa.8.0..sroa_idx, align 4
  %.sroa.9.0..sroa_idx = getelementptr inbounds nuw i8, ptr %3, i64 24
  %.sroa.9.0.copyload = load float, ptr %.sroa.9.0..sroa_idx, align 8
  %.sroa.10.0..sroa_idx = getelementptr inbounds nuw i8, ptr %3, i64 28
  %.sroa.10.0.copyload = load float, ptr %.sroa.10.0..sroa_idx, align 4
  %.sroa.11.0..sroa_idx = getelementptr inbounds nuw i8, ptr %3, i64 32
  %.sroa.11.0.copyload = load float, ptr %.sroa.11.0..sroa_idx, align 8
  %.sroa.12.0..sroa_idx = getelementptr inbounds nuw i8, ptr %3, i64 36
  %.sroa.12.0.copyload = load float, ptr %.sroa.12.0..sroa_idx, align 4
  %.sroa.13.0..sroa_idx = getelementptr inbounds nuw i8, ptr %3, i64 40
  %.sroa.13.0.copyload = load float, ptr %.sroa.13.0..sroa_idx, align 8
  %.sroa.14.0..sroa_idx = getelementptr inbounds nuw i8, ptr %3, i64 44
  %.sroa.14.0.copyload = load float, ptr %.sroa.14.0..sroa_idx, align 4
  %.sroa.15.0..sroa_idx = getelementptr inbounds nuw i8, ptr %3, i64 48
  %.sroa.15.0.copyload = load float, ptr %.sroa.15.0..sroa_idx, align 8
  %.sroa.16.0..sroa_idx = getelementptr inbounds nuw i8, ptr %3, i64 52
  %.sroa.16.0.copyload = load float, ptr %.sroa.16.0..sroa_idx, align 4
  %.sroa.17.0..sroa_idx = getelementptr inbounds nuw i8, ptr %3, i64 56
  %.sroa.17.0.copyload = load float, ptr %.sroa.17.0..sroa_idx, align 8
  %.sroa.18.0..sroa_idx = getelementptr inbounds nuw i8, ptr %3, i64 60
  %.sroa.18.0.copyload = load float, ptr %.sroa.18.0..sroa_idx, align 4
  call void @llvm.lifetime.start.p0(i64 64, ptr nonnull %5) #56
  store float %.sroa.0.0.copyload, ptr %5, align 16
  %9 = getelementptr inbounds nuw i8, ptr %5, i64 4
  store float %.sroa.7.0.copyload, ptr %9, align 4
  %10 = getelementptr inbounds nuw i8, ptr %5, i64 8
  store float %.sroa.11.0.copyload, ptr %10, align 8
  %11 = getelementptr inbounds nuw i8, ptr %5, i64 12
  store float %.sroa.15.0.copyload, ptr %11, align 4
  %12 = getelementptr inbounds nuw i8, ptr %5, i64 16
  store float %.sroa.4.0.copyload, ptr %12, align 16
  %13 = getelementptr inbounds nuw i8, ptr %5, i64 20
  store float %.sroa.8.0.copyload, ptr %13, align 4
  %14 = getelementptr inbounds nuw i8, ptr %5, i64 24
  store float %.sroa.12.0.copyload, ptr %14, align 8
  %15 = getelementptr inbounds nuw i8, ptr %5, i64 28
  store float %.sroa.16.0.copyload, ptr %15, align 4
  %16 = getelementptr inbounds nuw i8, ptr %5, i64 32
  store float %.sroa.5.0.copyload, ptr %16, align 16
  %17 = getelementptr inbounds nuw i8, ptr %5, i64 36
  store float %.sroa.9.0.copyload, ptr %17, align 4
  %18 = getelementptr inbounds nuw i8, ptr %5, i64 40
  store float %.sroa.13.0.copyload, ptr %18, align 8
  %19 = getelementptr inbounds nuw i8, ptr %5, i64 44
  store float %.sroa.17.0.copyload, ptr %19, align 4
  %20 = getelementptr inbounds nuw i8, ptr %5, i64 48
  store float %.sroa.6.0.copyload, ptr %20, align 16
  %21 = getelementptr inbounds nuw i8, ptr %5, i64 52
  store float %.sroa.10.0.copyload, ptr %21, align 4
  %22 = getelementptr inbounds nuw i8, ptr %5, i64 56
  store float %.sroa.14.0.copyload, ptr %22, align 8
  %23 = getelementptr inbounds nuw i8, ptr %5, i64 60
  store float %.sroa.18.0.copyload, ptr %23, align 4
  %24 = load ptr, ptr @glad_glUniformMatrix4fv, align 8
  call void %24(i32 noundef %2, i32 noundef 1, i8 noundef zeroext 0, ptr noundef nonnull %5) #56
  call void @llvm.lifetime.end.p0(i64 64, ptr nonnull %5) #56
  br label %25

25:                                               ; preds = %7, %4
  ret void
}